target datalayout = "e-m:e-p270:32:32-p271:32:32-p272:64:64-i64:64-i128:128-f80:128-n8:16:32:64-S128"
target triple = "x86_64-pc-linux-gnu"

; Function Attrs: mustprogress uwtable
define hidden noundef i32 @_ZN2qe10mbi_plugin5checkER10ref_vectorI4expr11ast_managerER3refI5modelE(ptr noundef nonnull align 8 dereferenceable(96) %0, ptr noundef nonnull align 8 dereferenceable(16) %1, ptr noundef nonnull align 8 dereferenceable(8) %2) #4 align 2 {
  %4 = alloca i32, align 4
  %5 = alloca ptr, align 8
  %6 = alloca ptr, align 8
  %7 = alloca ptr, align 8
  store ptr %0, ptr %5, align 8, !tbaa !3
  store ptr %1, ptr %6, align 8, !tbaa !44
  store ptr %2, ptr %7, align 8, !tbaa !46
  %8 = load ptr, ptr %5, align 8
  br label %9

9:                                                ; preds = %3, %19
  %10 = load ptr, ptr %6, align 8, !tbaa !44
  %11 = load ptr, ptr %7, align 8, !tbaa !46
  %12 = load ptr, ptr %8, align 8, !tbaa !48
  %13 = getelementptr inbounds ptr, ptr %12, i64 2
  %14 = load ptr, ptr %13, align 8
  %15 = call noundef i32 %14(ptr noundef nonnull align 8 dereferenceable(96) %8, ptr noundef nonnull align 8 dereferenceable(16) %10, ptr noundef nonnull align 8 dereferenceable(8) %11)
  switch i32 %15, label %19 [
    i32 0, label %16
    i32 1, label %17
    i32 3, label %18
    i32 2, label %19
  ]

16:                                               ; preds = %9
  store i32 1, ptr %4, align 4
  br label %20

17:                                               ; preds = %9
  store i32 -1, ptr %4, align 4
  br label %20

18:                                               ; preds = %9
  store i32 0, ptr %4, align 4
  br label %20

19:                                               ; preds = %9, %9
  br label %9, !llvm.loop !50

20:                                               ; preds = %18, %17, %16
  %21 = load i32, ptr %4, align 4
  ret i32 %21
}