; Function Attrs: mustprogress uwtable
define hidden noundef range(i32 -1, 2) i32 @_ZN2qe10mbi_plugin5checkER10ref_vectorI4expr11ast_managerER3refI5modelE(ptr noundef nonnull align 8 dereferenceable(96) %0, ptr noundef nonnull align 8 dereferenceable(16) %1, ptr noundef nonnull align 8 dereferenceable(8) %2) local_unnamed_addr #3 align 2 {
  br label %4

4:                                                ; preds = %4, %3
  %5 = load ptr, ptr %0, align 8, !tbaa !81
  %6 = getelementptr inbounds nuw i8, ptr %5, i64 16
  %7 = load ptr, ptr %6, align 8
  %8 = tail call noundef i32 %7(ptr noundef nonnull align 8 dereferenceable(96) %0, ptr noundef nonnull align 8 dereferenceable(16) %1, ptr noundef nonnull align 8 dereferenceable(8) %2)
  switch i32 %8, label %4 [
    i32 0, label %.loopexit.loopexit
    i32 1, label %.loopexit.loopexit5
    i32 3, label %.loopexit
  ], !llvm.loop !83

.loopexit.loopexit:                               ; preds = %4
  br label %.loopexit

.loopexit.loopexit5:                              ; preds = %4
  br label %.loopexit

.loopexit:                                        ; preds = %4, %.loopexit.loopexit5, %.loopexit.loopexit
  %.0 = phi i32 [ 1, %.loopexit.loopexit ], [ -1, %.loopexit.loopexit5 ], [ 0, %4 ]
  ret i32 %.0
}